target datalayout = "e-m:e-p270:32:32-p271:32:32-p272:64:64-i64:64-i128:128-f80:128-n8:16:32:64-S128"
target triple = "x86_64-pc-linux-gnu"

%struct.wmem_block_fast_allocator_t = type { ptr, ptr }
%struct._wmem_block_fast_jumbo = type { ptr, ptr }
%struct.wmem_block_fast_chunk_t = type { i32 }
%struct._wmem_block_fast_hdr = type { ptr, i32 }

; Function Attrs: inlinehint null_pointer_is_valid sspstrong uwtable
define internal void @wmem_block_fast_new_block(ptr noundef %0) #4 {
  %2 = alloca ptr, align 8
  %3 = alloca ptr, align 8
  store ptr %0, ptr %2, align 8
  call void @llvm.lifetime.start.p0(i64 8, ptr %3) #10
  %4 = call noalias ptr @wmem_alloc(ptr noundef null, i64 noundef 2097152) #11
  store ptr %4, ptr %3, align 8
  %5 = load ptr, ptr %3, align 8
  %6 = getelementptr inbounds nuw %struct._wmem_block_fast_hdr, ptr %5, i32 0, i32 1
  store i32 16, ptr %6, align 8
  %7 = load ptr, ptr %2, align 8
  %8 = getelementptr inbounds nuw %struct.wmem_block_fast_allocator_t, ptr %7, i32 0, i32 0
  %9 = load ptr, ptr %8, align 8
  %10 = load ptr, ptr %3, align 8
  %11 = getelementptr inbounds nuw %struct._wmem_block_fast_hdr, ptr %10, i32 0, i32 0
  store ptr %9, ptr %11, align 8
  %12 = load ptr, ptr %3, align 8
  %13 = load ptr, ptr %2, align 8
  %14 = getelementptr inbounds nuw %struct.wmem_block_fast_allocator_t, ptr %13, i32 0, i32 0
  store ptr %12, ptr %14, align 8
  call void @llvm.lifetime.end.p0(i64 8, ptr %3) #10
  ret void
}

; Function Attrs: null_pointer_is_valid sspstrong uwtable
define internal ptr @wmem_block_fast_alloc(ptr noundef %0, i64 noundef %1) #0 {
  %3 = alloca ptr, align 8
  %4 = alloca ptr, align 8
  %5 = alloca i64, align 8
  %6 = alloca ptr, align 8
  %7 = alloca ptr, align 8
  %8 = alloca i32, align 4
  %9 = alloca ptr, align 8
  %10 = alloca i32, align 4
  store ptr %0, ptr %4, align 8
  store i64 %1, ptr %5, align 8
  call void @llvm.lifetime.start.p0(i64 8, ptr %6) #10
  %11 = load ptr, ptr %4, align 8
  store ptr %11, ptr %6, align 8
  call void @llvm.lifetime.start.p0(i64 8, ptr %7) #10
  call void @llvm.lifetime.start.p0(i64 4, ptr %8) #10
  %12 = load i64, ptr %5, align 8
  %13 = icmp ugt i64 %12, 2097120
  br i1 %13, label %14, label %46

14:                                               ; preds = %2
  call void @llvm.lifetime.start.p0(i64 8, ptr %9) #10
  %15 = load i64, ptr %5, align 8
  %16 = add i64 %15, 16
  %17 = add i64 %16, 16
  %18 = call noalias ptr @wmem_alloc(ptr noundef null, i64 noundef %17) #11
  store ptr %18, ptr %9, align 8
  %19 = load ptr, ptr %6, align 8
  %20 = getelementptr inbounds nuw %struct.wmem_block_fast_allocator_t, ptr %19, i32 0, i32 1
  %21 = load ptr, ptr %20, align 8
  %22 = load ptr, ptr %9, align 8
  %23 = getelementptr inbounds nuw %struct._wmem_block_fast_jumbo, ptr %22, i32 0, i32 1
  store ptr %21, ptr %23, align 8
  %24 = load ptr, ptr %9, align 8
  %25 = getelementptr inbounds nuw %struct._wmem_block_fast_jumbo, ptr %24, i32 0, i32 1
  %26 = load ptr, ptr %25, align 8
  %27 = icmp ne ptr %26, null
  br i1 %27, label %28, label %34

28:                                               ; preds = %14
  %29 = load ptr, ptr %9, align 8
  %30 = load ptr, ptr %9, align 8
  %31 = getelementptr inbounds nuw %struct._wmem_block_fast_jumbo, ptr %30, i32 0, i32 1
  %32 = load ptr, ptr %31, align 8
  %33 = getelementptr inbounds nuw %struct._wmem_block_fast_jumbo, ptr %32, i32 0, i32 0
  store ptr %29, ptr %33, align 8
  br label %34

34:                                               ; preds = %28, %14
  %35 = load ptr, ptr %9, align 8
  %36 = getelementptr inbounds nuw %struct._wmem_block_fast_jumbo, ptr %35, i32 0, i32 0
  store ptr null, ptr %36, align 8
  %37 = load ptr, ptr %9, align 8
  %38 = load ptr, ptr %6, align 8
  %39 = getelementptr inbounds nuw %struct.wmem_block_fast_allocator_t, ptr %38, i32 0, i32 1
  store ptr %37, ptr %39, align 8
  %40 = load ptr, ptr %9, align 8
  %41 = getelementptr i8, ptr %40, i64 16
  store ptr %41, ptr %7, align 8
  %42 = load ptr, ptr %7, align 8
  %43 = getelementptr inbounds nuw %struct.wmem_block_fast_chunk_t, ptr %42, i32 0, i32 0
  store i32 -1, ptr %43, align 4
  %44 = load ptr, ptr %7, align 8
  %45 = getelementptr i8, ptr %44, i64 16
  store ptr %45, ptr %3, align 8
  store i32 1, ptr %10, align 4
  call void @llvm.lifetime.end.p0(i64 8, ptr %9) #10
  br label %91

46:                                               ; preds = %2
  %47 = load i64, ptr %5, align 8
  %48 = add i64 %47, 15
  %49 = and i64 -16, %48
  %50 = add i64 %49, 16
  %51 = trunc i64 %50 to i32
  store i32 %51, ptr %8, align 4
  %52 = load ptr, ptr %6, align 8
  %53 = getelementptr inbounds nuw %struct.wmem_block_fast_allocator_t, ptr %52, i32 0, i32 0
  %54 = load ptr, ptr %53, align 8
  %55 = icmp ne ptr %54, null
  br i1 %55, label %56, label %65

56:                                               ; preds = %46
  %57 = load ptr, ptr %6, align 8
  %58 = getelementptr inbounds nuw %struct.wmem_block_fast_allocator_t, ptr %57, i32 0, i32 0
  %59 = load ptr, ptr %58, align 8
  %60 = getelementptr inbounds nuw %struct._wmem_block_fast_hdr, ptr %59, i32 0, i32 1
  %61 = load i32, ptr %60, align 8
  %62 = sub i32 2097152, %61
  %63 = load i32, ptr %8, align 4
  %64 = icmp slt i32 %62, %63
  br i1 %64, label %65, label %67

65:                                               ; preds = %56, %46
  %66 = load ptr, ptr %6, align 8
  call void @wmem_block_fast_new_block(ptr noundef %66)
  br label %67

67:                                               ; preds = %65, %56
  %68 = load ptr, ptr %6, align 8
  %69 = getelementptr inbounds nuw %struct.wmem_block_fast_allocator_t, ptr %68, i32 0, i32 0
  %70 = load ptr, ptr %69, align 8
  %71 = load ptr, ptr %6, align 8
  %72 = getelementptr inbounds nuw %struct.wmem_block_fast_allocator_t, ptr %71, i32 0, i32 0
  %73 = load ptr, ptr %72, align 8
  %74 = getelementptr inbounds nuw %struct._wmem_block_fast_hdr, ptr %73, i32 0, i32 1
  %75 = load i32, ptr %74, align 8
  %76 = sext i32 %75 to i64
  %77 = getelementptr i8, ptr %70, i64 %76
  store ptr %77, ptr %7, align 8
  %78 = load i64, ptr %5, align 8
  %79 = trunc i64 %78 to i32
  %80 = load ptr, ptr %7, align 8
  %81 = getelementptr inbounds nuw %struct.wmem_block_fast_chunk_t, ptr %80, i32 0, i32 0
  store i32 %79, ptr %81, align 4
  %82 = load i32, ptr %8, align 4
  %83 = load ptr, ptr %6, align 8
  %84 = getelementptr inbounds nuw %struct.wmem_block_fast_allocator_t, ptr %83, i32 0, i32 0
  %85 = load ptr, ptr %84, align 8
  %86 = getelementptr inbounds nuw %struct._wmem_block_fast_hdr, ptr %85, i32 0, i32 1
  %87 = load i32, ptr %86, align 8
  %88 = add i32 %87, %82
  store i32 %88, ptr %86, align 8
  %89 = load ptr, ptr %7, align 8
  %90 = getelementptr i8, ptr %89, i64 16
  store ptr %90, ptr %3, align 8
  store i32 1, ptr %10, align 4
  br label %91

91:                                               ; preds = %67, %34
  call void @llvm.lifetime.end.p0(i64 4, ptr %8) #10
  call void @llvm.lifetime.end.p0(i64 8, ptr %7) #10
  call void @llvm.lifetime.end.p0(i64 8, ptr %6) #10
  %92 = load ptr, ptr %3, align 8
  ret ptr %92
}