; Function Attrs: null_pointer_is_valid sspstrong uwtable
define internal ptr @wmem_block_fast_alloc(ptr noundef captures(none) %0, i64 noundef %1) #0 {
  %3 = icmp ugt i64 %1, 2097120
  br i1 %3, label %4, label %14

4:                                                ; preds = %2
  %5 = add i64 %1, 32
  %6 = tail call noalias ptr @wmem_alloc(ptr noundef null, i64 noundef %5) #7
  %7 = getelementptr inbounds nuw i8, ptr %0, i64 8
  %8 = load ptr, ptr %7, align 8
  %9 = getelementptr inbounds nuw i8, ptr %6, i64 8
  store ptr %8, ptr %9, align 8
  %.not29 = icmp eq ptr %8, null
  br i1 %.not29, label %11, label %10

10:                                               ; preds = %4
  store ptr %6, ptr %8, align 8
  br label %11

11:                                               ; preds = %10, %4
  store ptr null, ptr %6, align 8
  store ptr %6, ptr %7, align 8
  %12 = getelementptr i8, ptr %6, i64 16
  store i32 -1, ptr %12, align 4
  %13 = getelementptr i8, ptr %6, i64 32
  br label %39

14:                                               ; preds = %2
  %15 = trunc nuw i64 %1 to i32
  %16 = add nuw nsw i32 %15, 15
  %17 = and i32 %16, 4194288
  %18 = add nuw nsw i32 %17, 16
  %19 = load ptr, ptr %0, align 8
  %.not = icmp eq ptr %19, null
  br i1 %.not, label %25, label %20

20:                                               ; preds = %14
  %21 = getelementptr inbounds nuw i8, ptr %19, i64 8
  %22 = load i32, ptr %21, align 8
  %23 = sub i32 2097152, %22
  %24 = icmp slt i32 %23, %18
  br i1 %24, label %25, label %29

25:                                               ; preds = %20, %14
  %26 = tail call noalias dereferenceable_or_null(2097152) ptr @wmem_alloc(ptr noundef null, i64 noundef 2097152) #7
  %27 = getelementptr inbounds nuw i8, ptr %26, i64 8
  store i32 16, ptr %27, align 8
  %28 = load ptr, ptr %0, align 8
  store ptr %28, ptr %26, align 8
  store ptr %26, ptr %0, align 8
  br label %29

29:                                               ; preds = %25, %20
  %30 = phi i32 [ 16, %25 ], [ %22, %20 ]
  %31 = phi ptr [ %26, %25 ], [ %19, %20 ]
  %32 = sext i32 %30 to i64
  %33 = getelementptr i8, ptr %31, i64 %32
  store i32 %15, ptr %33, align 4
  %34 = load ptr, ptr %0, align 8
  %35 = getelementptr inbounds nuw i8, ptr %34, i64 8
  %36 = load i32, ptr %35, align 8
  %37 = add i32 %36, %18
  store i32 %37, ptr %35, align 8
  %38 = getelementptr i8, ptr %33, i64 16
  br label %39

39:                                               ; preds = %29, %11
  %.0 = phi ptr [ %13, %11 ], [ %38, %29 ]
  ret ptr %.0
}